c__builtin__
set
p1
((lp2
S'QUESADA, JOE'
p3
aS'SYNCH/EVERETT THOMAS'
p4
aS'SILVER SAMURAI/KENYU'
p5
aS'STORM, CHILI'
p6
aS'VOSTOK'
p7
aS'VOGHT, AMELIA'
p8
aS'GAMBIT/REMY LEBEAU '
p9
aS'DOPPELGANGER'
p10
aS'BEAST/HENRY &HANK& P'
p11
aS'GREY, JEAN | MUTANT '
p12
aS'SIF'
p13
aS'PUCK DOPPELGANGER'
p14
aS'PUPPET MASTER/PHILLI'
p15
aS'CLEA'
p16
aS'FLATMAN'
p17
aS'SNOWBIRD/NARYA/ANNE '
p18
aS'PHARAOH RAMA-TUT'
p19
aS'GULLIN'
p20
aS'LOCKLIN, GENERAL MER'
p21
aS'SIMON, ALEX FLORES'
p22
aS'DEVIL-SLAYER/ERIC SI'
p23
aS'MOWAT, FARLEY'
p24
aS'CAPTAIN AMERICA'
p25
aS'MANDARIN'
p26
aS'JONES, GABE'
p27
aS'STORM/ORORO MUNROE S'
p28
aS'SZARDOS, MARGALI'
p29
aS'MEDUSA/MEDUSALITH AM'
p30
aS'DAKESIAN, NANCI'
p31
aS'YELLOWJACKET II | MU'
p32
aS'RED WOLF III/WILL TA'
p33
aS'HIJACKER'
p34
aS'MISTER HYDE/CALVIN Z'
p35
aS'MR. FANTASTIC DOPPEL'
p36
aS'MARROW/SARAH '
p37
aS'EPOCH'
p38
aS'ADAMS, CINDY'
p39
aS'UATU'
p40
aS'NEBULA'
p41
aS'BLUE SHIELD/JOSEPH J'
p42
aS'DR. STRANGE/STEPHEN '
p43
aS'BOLT II/CHRIS BRADLE'
p44
aS'BLOOD BROTHERS'
p45
aS'HUSK/PAIGE GUTHRIE'
p46
aS'ST. THOMAS, JULES'
p47
aS'JONES, RICHARD MILHO'
p48
aS'THOR/DR. DONALD BLAK'
p49
aS'PERSUASION/KARA KILL'
p50
aS'RICHARDS, FRANKLIN B'
p51
aS'MOON KNIGHT/MARC SPE'
p52
aS'STARFOX/EROS'
p53
aS'MAGUS'
p54
aS'STOCKBRIDGE, DEANNA'
p55
aS'GUARDIAN/JAMES MACDO'
p56
aS'LUMPKIN, WILLIAM WIL'
p57
aS'BINARY/CAROL DANVERS'
p58
aS'CHAMPION, IMUS'
p59
aS'GAUNTLET'
p60
aS'MAGRUDER, ALLIE'
p61
aS'JUBILEE/JUBILATION L'
p62
aS'STUNT-MASTER/GEORGE '
p63
aS'ICEMAN DOPPELGANGER'
p64
aS'QUASAR DOPPELGANGER '
p65
aS'MUTAURUS'
p66
aS'KENT, CLARK'
p67
aS'VOLSTAGG | MUTANT X-'
p68
aS'CHARCOAL/CHARLIE BUR'
p69
aS'JAMESON, J. JONAH'
p70
aS'CAPTAIN MARVEL/CAPTA'
p71
aS'DAREDEVIL/MATT MURDO'
p72
aS'DR. OCTOPUS | MUTANT'
p73
aS'LIVING MUMMY'
p74
aS'DOMINO III/BEATRICE/'
p75
aS'DARKHAWK DOPPELGANGE'
p76
aS'CYCLONE II/PIERRE FR'
p77
aS'PEREGRINE, LE/FRANCK'
p78
aS'DR. STRANGE | MUTANT'
p79
aS'ROGUE /'
p80
aS'SINEW/'
p81
aS'BLACK KNIGHT V/DANE '
p82
aS'CYCLOPS/SCOTT SUMMER'
p83
aS'STORM DOPPELGANGER I'
p84
aS'HOGUN [ASGARDIAN]'
p85
aS'POLARIS/LORNA DANE'
p86
aS'VOLCANA/MARSHA ROSEN'
p87
aS'MAN-KILLER/KATRINA L'
p88
aS'MENTOR/ALARS [ETERNA'
p89
aS'KRONOS'
p90
aS'GLADIATOR II'
p91
aS'THANOS'
p92
aS'TEXAS TWISTER/DREW D'
p93
aS'DINAH-SOAR'
p94
aS'WOLVERINE DOPPELGANG'
p95
aS'MACTAGGERT, MOIRA KI'
p96
aS'ICEMAN/ROBERT BOBBY '
p97
aS'TRIATHLON/DELROY GAR'
p98
aS'VALKYRIE II | MUTANT'
p99
aS'KA-ZAR/KEVIN PLUNDER'
p100
aS'LAMY, KELLY'
p101
aS'NIGHTCRAWLER | MUTAN'
p102
aS'CITIZEN V II/HELMUT '
p103
aS'ROGUE | MUTANT X-VER'
p104
aS'DARKHAWK/CHRIS POWEL'
p105
aS'ZIRAN'
p106
aS'PORCUPINE/ALEX GENTR'
p107
aS'THUNDERSTRIKE/ERIC K'
p108
aS'PEATOR'
p109
aS'TAKACHIHO, HIRO'
p110
aS'CAPTAIN BRITAIN/BRIA'
p111
aS'REDWING'
p112
aS'CRIMSON COWL II/'
p113
aS'KIRBY, JACK'
p114
aS'LILANDRA NERAMANI [S'
p115
aS"SHANNA/SHANNA O'HARA"
p116
aS'SASQUATCH DOPPELGANG'
p117
aS'ROSS, GEN. THADDEUS '
p118
aS'STRONGARM/'
p119
aS'COOPER, DR. VALERIE'
p120
aS'BLACK WIDOW/NATASHA '
p121
aS'BANSHEE/SEAN CASSIDY'
p122
aS'SHE-HULK DOPPELGANGE'
p123
aS'MANITOU'
p124
aS'ENRAGED'
p125
aS'WHITE QUEEN/EMMA FRO'
p126
aS'NIGHTHAWK/KYLE RICHM'
p127
aS'FIREBUG/'
p128
aS'HULK DOPPELGANGER'
p129
aS'WINDSHEAR/COLIN ASHW'
p130
aS'INVISIBLE WOMAN/SUE '
p131
aS'UNICORN/MYLOS MASARY'
p132
aS'STORM DOPPELGANGER'
p133
aS'ERISHKIGEL II/HOLLY '
p134
aS'USAGENT DOPPELGANGER'
p135
aS'INVISIBLE WOMAN DOPP'
p136
aS'SCARLET WITCH DOPPEL'
p137
aS'TECH-NOIR/'
p138
aS'TIGER SHARK/TODD ARL'
p139
aS'CARDINAL/CLEMDENON'
p140
aS'VALINOR'
p141
aS"N'DELE"
p142
aS'SHATTERFIST/'
p143
aS'LUNA/LUNA MAXIMOFF ['
p144
aS'PSYLOCKE/ELISABETH B'
p145
aS'THUNDERBIRD II/JAMES'
p146
aS'HAWKEYE DOPPELGANGER'
p147
aS'FALCON/SAM WILSON'
p148
aS'DUGAN, TIMOTHY ALOYI'
p149
aS'MR. SINISTER/NATHAN '
p150
aS'NELSON, CANDACE'
p151
aS'SWORDSMAN/JACQUES DU'
p152
aS'MECHAMAGE/'
p153
aS'GAMORA'
p154
aS'ABOMINATION/EMIL BLO'
p155
aS'NORRISS, SISTER BARB'
p156
aS'MAN-SPIDER | MUTANT '
p157
aS'HARKNESS, AGATHA'
p158
aS'TEZCATLIPOCA'
p159
aS'TIGRA/GREER NELSON'
p160
aS'SUNSPOT/ROBERTO DACO'
p161
aS'SHELLSHOCK/'
p162
aS'FURY, COL. NICHOLAS '
p163
aS'MACHINE MAN/X-51'
p164
aS'BETA RAY BILL | MUTA'
p165
aS'VISION DOPPELGANGER'
p166
aS'LOBO'
p167
aS'VISION '
p168
aS'HULK/DR. ROBERT BRUC'
p169
aS'EGO'
p170
aS'TALISMAN'
p171
aS'WITCHFIRE'
p172
aS'SCARLET WITCH/WANDA '
p173
aS'RAGE/ELVIN DARYL HAL'
p174
aS'CAPTAIN AMERICA DOPP'
p175
aS'MR. FANTASTIC/REED R'
p176
aS'WILD CHILD DOPPELGAN'
p177
aS'SHAMROCK/MOLLY FITZG'
p178
aS'SASQUATCH/WALTER LAN'
p179
aS'MOONDRAGON/HEATHER D'
p180
aS'KREDDICK'
p181
aS'PUCK/EUGENE MILTON J'
p182
aS'BUTCH'
p183
aS'SPEEDBALL/ROBBIE BAL'
p184
aS'DARK BEAST/HENRY MCC'
p185
aS'ANGEL/WARREN KENNETH'
p186
aS'SPUNJE'
p187
aS'TRITON DOPPELGANGER '
p188
aS'WEREWOLF BY NIGHT/JA'
p189
aS'CAMPBELL, DR. RORY'
p190
aS'NORTHSTAR DOPPELGANG'
p191
aS'TORPEDO III/BROCK JO'
p192
aS'EDGERTON, GAYLE'
p193
aS'BISON/BILLY KITSON'
p194
aS'HUMAN TORCH/JOHNNY S'
p195
aS'PROFESSOR X DOPPELGA'
p196
aS'IRON MAN/TONY STARK '
p197
aS'MISS MASS/'
p198
aS'MCLAREN, MEGAN'
p199
aS'NIGHTCRAWLER/KURT WA'
p200
aS'LEE, STAN'
p201
aS'PATHWAY/LAURA DEAN'
p202
aS'ITZAMNA'
p203
aS'SABRA/RUTH BAT-SERAP'
p204
aS'POWER MAN/ERIK JOSTE'
p205
aS'FIREFIST/RUSTY COLLI'
p206
aS'HULK DOPPELGANGER II'
p207
aS'RHINO'
p208
aS'MAGDALENE/MARISSA DA'
p209
aS'SHAMAN/MICHAEL TWOYO'
p210
aS'BLITZKRIEG/'
p211
aS'HATE'
p212
aS'HUMAN TORCH ANDROID/'
p213
aS'BEACH, SPIDER'
p214
aS'WILD CHILD/KYLE GIBN'
p215
aS'TURBO II (A)/MICHIKO'
p216
aS'IRON FIST/DANIEL RAN'
p217
aS'THING/BENJAMIN J. GR'
p218
aS'HERCULES [GREEK GOD]'
p219
aS'FIREBIRD/BONITA JUAR'
p220
aS'SHROUD/MAXIMILLIAN Q'
p221
aS'CYPHER/DOUG RAMSEY'
p222
aS'MAGNETO/MAGNUS/ERIC '
p223
aS'X-RAY'
p224
aS'HUDSON, HEATHER'
p225
aS'AURORA/JEANNE-MARIE '
p226
aS'NOVA | MUTANT X-VERS'
p227
aS'RONAN THE ACCUSER [K'
p228
aS'RICTOR/JULIO ESTEBAN'
p229
aS'BROTHER VOODOO | MUT'
p230
aS'BOX/ROGER BOCHS'
p231
aS'EVERETT, BILL'
p232
aS'HOGUN | MUTANT X-VER'
p233
aS'ABSORBING MAN/CARL C'
p234
aS'SHARPE, ROSALINDE'
p235
aS'BARON MORDO/KARL MOR'
p236
aS'TRITON DOPPELGANGER'
p237
aS'OSBORN, LIZ ALLAN'
p238
aS'THINKER'
p239
aS'RALF'
p240
aS'SUMMERS, NATHAN CHRI'
p241
aS'BALLANTINE, KAYLA'
p242
aS'SLYDE'
p243
aS'GRIM REAPER/ERIC WIL'
p244
aS'ARON [WATCHER]'
p245
aS'NURO'
p246
aS'CARTER, PEGGY'
p247
aS'BRAIN DRAIN/WERNER S'
p248
aS'PALMIOTTI, JIMMY'
p249
aS'HARDRIVE'
p250
aS'DRAGONFLY/VERONICA D'
p251
aS'WATSON-PARKER, MARY '
p252
aS'TITANIA II/MARY SKEE'
p253
aS'LIVING TRIBUNAL'
p254
aS'FIN FANG FOOM | MUTA'
p255
aS'MAKKARI/MIKE KHARY/I'
p256
aS'ELECTRO/MAX DILLON'
p257
aS'STARSHINE II/BRANDY '
p258
aS'THING DOPPELGANGER I'
p259
aS'BLACKWING/JOSEPH MAN'
p260
aS'WONDER MAN DOPPELGAN'
p261
aS'LEADER/SAM STERNS'
p262
aS'TERRAXIA'
p263
aS'LYJA LAZERFIST [SKRU'
p264
aS'HELLSTORM/DAIMON HEL'
p265
aS'STRONG GUY/GUIDO CAR'
p266
aS'GAMBIT DOPPELGANGER'
p267
aS'DRAX/ARTHUR DOUGLAS'
p268
aS'FANDRAL | MUTANT X-V'
p269
aS'ENCHANTRESS/AMORA/HE'
p270
aS'BOOMERANG/FRED MYERS'
p271
aS'ELYSIUS'
p272
aS'HOLOCAUST'
p273
aS'QUICKSILVER | MUTANT'
p274
aS"R'TEE"
p275
aS'ANT-MAN/DR. HENRY J.'
p276
aS'EXODUS/BENNET DUPARI'
p277
aS'MIDGARD SERPENT'
p278
aS'BRUTE | MUTANT X-VER'
p279
aS'PIP/PRINCE GOFERN'
p280
aS'REAGAN, RONALD'
p281
aS'ABSORBING MAN | MUTA'
p282
aS'HUNTER, STEVIE'
p283
aS'SPEEDBALL DOPPELGANG'
p284
aS'STINGRAY | MUTANT X-'
p285
aS'JOLT/HALLIE TAKAHAMA'
p286
aS'MASTER ORDER'
p287
aS'ZURI'
p288
aS'CITIZEN V III/DALLAS'
p289
aS'NOVA DOPPELGANGER II'
p290
aS'EDGERTON, MR.'
p291
aS'MYSTERIO/QUENTIN BEC'
p292
aS'ISAAC'
p293
aS'JOCASTA'
p294
aS'ONE ABOVE ALL [CELES'
p295
aS'GREY GARGOYLE/PAUL P'
p296
aS'MEPHISTO'
p297
aS'SUB-MARINER | MUTANT'
p298
aS'DR. DRUID/ANTHONY LU'
p299
aS'SPIDER-WOMAN II/JULI'
p300
aS'SERSI/SYLVIA'
p301
aS'BISHOP /'
p302
aS'DRAX | MUTANT X-VERS'
p303
aS'BEREET'
p304
aS'THUNDERBIRD III/NEAL'
p305
aS'DAZZLER II/ALLISON B'
p306
aS'THING DOPPELGANGER'
p307
aS'TILBY, TRISH/PATRICI'
p308
aS'DAGGER/TANDY BOWEN'
p309
aS'THANOS DOPPELGANGER'
p310
aS'MOON KNIGHT | MUTANT'
p311
aS'CLOAK/TYRONE JOHNSON'
p312
aS'ODIN [ASGARDIAN]'
p313
aS'GYPSY MOTH'
p314
aS'STAPLES, EDNA M. GRA'
p315
aS'RICHARDS, FRANKLINK '
p316
aS'IKARIS/IKE HARRIS [E'
p317
aS'BLACK WIDOW DOPPELGA'
p318
aS'STRONG GUY DOPPELGAN'
p319
aS'MOLE MAN/HARVEY RUPE'
p320
aS'SHOCKWAVE/LANCASTER '
p321
aS'ZEDRAO, GENERAL'
p322
aS'QUICKSILVER/PIETRO M'
p323
aS'POLARIS DOPPELGANGER'
p324
aS'CONTEMPLATOR/TATH KI'
p325
aS'DR. OCTOPUS/OTTO OCT'
p326
aS'NORTHSTAR/JEAN-PAUL '
p327
aS'BLACK KNIGHT IV/PROF'
p328
aS'MIRAGE'
p329
aS'BLAKE, BECKY'
p330
aS'VAPOR'
p331
aS'RINTRAH'
p332
aS'DRACULA | MUTANT X-V'
p333
aS"CERISE II [SHI'AR]"
p334
aS'MCKENZIE, LYDIA'
p335
aS'SHE-HULK/JENNIFER WA'
p336
aS'ROGUE DOPPELGANGER'
p337
aS'YASHIDA, MARIKO | MU'
p338
aS'URSA MAJOR/MIKHAIL U'
p339
aS'AJAK/TECUMOTZIN [ETE'
p340
aS'SCARECROW/EBENEZER L'
p341
aS'IRONCLAD'
p342
aS'CRIMSON DYNAMO V/DIM'
p343
aS'NIGHT THRASHER/DUANE'
p344
aS'HAWK'
p345
aS'DAREDEVIL | MUTANT X'
p346
aS'BEAST DOPPELGANGER I'
p347
aS'SOFEN, MARION'
p348
aS'FOREARM'
p349
aS'LIVING LIGHTNING/MIG'
p350
aS'SUB-MARINER/NAMOR MA'
p351
aS'WARLOCK II/ADAM WARL'
p352
aS'CAPTAIN MARVEL II/MO'
p353
aS'TUSK'
p354
aS'VISION DOPPELGANGER '
p355
aS'SUNFIRE/SHIRO YOSHID'
p356
aS'RED GHOST/IVAN KRAGO'
p357
aS"SUPER SKRULL/KL'RT"
p358
aS'DEATH'
p359
aS'MULTIPLE MAN/JAMES A'
p360
aS'STOCKBRIDGE, CHARLES'
p361
aS'OKOYE'
p362
aS'KARNAK [INHUMAN]'
p363
aS'ICE-MAN | MUTANT X-V'
p364
aS'MOCKINGBIRD/DR. BARB'
p365
aS'ROM, SPACEKNIGHT'
p366
aS'CONSTRICTOR/FRANK PA'
p367
aS'SILVER SURFER DOPPEL'
p368
aS'VULTURE/ADRIAN TOOME'
p369
aS'JUGGERNAUT/CAIN MARK'
p370
aS'DR. DOOM | MUTANT X-'
p371
aS'STRIDER'
p372
aS'COLLECTOR/TANELEER T'
p373
aS'FOXBAT'
p374
aS'CAPTAIN AMERICA | MU'
p375
aS'DIABLO/ESTEBAN DE AB'
p376
aS'DARLA'
p377
aS'BEYONDER | MUTANT X-'
p378
aS'3-D MAN/CHARLES CHAN'
p379
aS'NAMORITA/NITA PRENTI'
p380
aS'LETHA'
p381
aS'BLOODSTORM | MUTANT '
p382
aS'POTTER, BETSY BEATTY'
p383
aS'JACK OF HEARTS/JACK '
p384
aS'NAMORITA DOPPELGANGE'
p385
aS'MASTERS, ALICIA REIS'
p386
aS'SCREAMING MIMI/MELIS'
p387
aS'X-MAN/NATHAN GREY '
p388
aS'THOR III DOPPELGANGE'
p389
aS'DAKIMH THE ENCHANTER'
p390
aS'EEL II/EDWARD LAVELL'
p391
aS'DE LA FONTAINE, CONT'
p392
aS'IRON MAN IV/JAMES R.'
p393
aS'COLOSSUS II DOPPELGA'
p394
aS'PHOENIX III/RACHEL S'
p395
aS'GLADIATOR/MELVIN POT'
p396
aS'STRONG GUY | MUTANT '
p397
aS'QUINN, ASHLEY'
p398
aS'IRON MAN V/TEEN TONY'
p399
aS'NEWMARK, LOTUS'
p400
aS'JUSTICE II/VANCE AST'
p401
aS'KELLY, SEN. ROBERT E'
p402
aS'UNION JACK III/JOEY '
p403
aS'WHIPLASH/MARK SCARLO'
p404
aS'MASTER/ESHU'
p405
aS'POWER MAN II | MUTAN'
p406
aS'KRAVEN THE HUNTER/SE'
p407
aS'BLACKBALL'
p408
aS'WISDOM, PETER'
p409
aS'GRANDMASTER/EN DWI G'
p410
aS'PROFESSOR X/CHARLES '
p411
aS'PUCK DOPPELGANGER II'
p412
aS'EBONY'
p413
aS'HELA [ASGARDIAN]'
p414
aS'GORGON [INHUMAN]'
p415
aS'BLACK KNIGHT V DOPPE'
p416
aS'THOR | MUTANT X-VERS'
p417
aS'MOONDRAGON DOPPELGAN'
p418
aS'ZERO'
p419
aS'NOVA DOPPELGANGER'
p420
aS'GALACTUS/GALAN'
p421
aS'DARKSTAR/LAYNIA SERG'
p422
aS'JARVIS, EDWIN '
p423
aS'MARVEL GIRL DOPPELGA'
p424
aS'STRANGER'
p425
aS'WIZARD/BENTLEY WITTM'
p426
aS'DRUMM, JERICHO'
p427
aS'MULTIPLE MAN DOPPELG'
p428
aS'BEYONDER'
p429
aS'MARTINEZ, ALITHA'
p430
aS'FLORES, JAMIE'
p431
aS'FANDRAL [ASGARDIAN]'
p432
aS'CRYSTAL [INHUMAN]'
p433
aS'HOUND'
p434
aS'LORD CHAOS'
p435
aS'BLACK KNIGHT IV DOPP'
p436
aS'SMITH, KEVIN'
p437
aS'WRECKER III/DIRK GAR'
p438
aS'GREMLIN/'
p439
aS'GHOST RIDER II/JOHNN'
p440
aS'BILE/'
p441
aS'WOLVERINE | MUTANT X'
p442
aS'SPIDER-WOMAN DOPPELG'
p443
aS'CANNONBALL II/SAM GU'
p444
aS'DRAX DOPPELGANGER'
p445
aS'SVAROG'
p446
aS'PALADIN/PAUL DENNIS'
p447
aS'FIZ [SKRULL]'
p448
aS'ATTUMA'
p449
aS'NOVA/RICHARD RIDER'
p450
aS'USAGENT/CAPTAIN JOHN'
p451
aS'CHIEF EXAMINER'
p452
aS'MALICE III'
p453
aS'MARVEL GIRL/JEAN GRE'
p454
aS'POUNDCAKES/MARIAN PO'
p455
aS'BLACK BOLT/BLACKANTO'
p456
aS'MODOK/GEORGE TARLETO'
p457
aS'HULK | MUTANT X-VERS'
p458
aS'SANDMAN/WILLIAM BAKE'
p459
aS'SWORDSMAN III/PHILIP'
p460
aS'BLAQUESMITH'
p461
aS'EMPLATE/MARIUS ST. C'
p462
aS'DEVOS THE DEVESTATOR'
p463
aS'NELSON, FRANKLIN FOG'
p464
aS'SIRYN/THERESA ROURKE'
p465
aS'SHATTERSTAR II/GAVEE'
p466
aS'SILVER SURFER/NORRIN'
p467
aS'ROBERTSON, JOE'
p468
aS'BAYMAX'
p469
aS'PAIBOK, CAPT. [SKRUL'
p470
aS'COBRA/KLAUS VORHEES'
p471
aS'SPIDER-WOMAN/JESSICA'
p472
aS'SILVER SURFER IMPOST'
p473
aS'JOYSTICK/JANICE'
p474
aS'BEETLE/ABNER RONALD '
p475
aS'TEN FOR'
p476
aS'EEL/LEOPOLD STRYKE'
p477
aS'WOLVERINE/LOGAN '
p478
aS'BLACK GOLIATH/DR. WI'
p479
aS'ANTHROMORPHO'
p480
aS'MIRAGE II/DANIELLE M'
p481
aS"KARMA/XI'AN COY MANH"
p482
aS'NIGHTHAWK II/KYLE RI'
p483
aS'DR. DOOM/VICTOR VON '
p484
aS'LOVE'
p485
aS'VINDICATOR II DOPPEL'
p486
aS'SUMMERS, SCOTT III |'
p487
aS'OSIRIS'
p488
aS'EXECUTIONER II/SKURG'
p489
aS'MELTER/BRUNO HORGAN'
p490
aS'MS. MARVEL II/SHARON'
p491
aS'FERAL/MARIA CALLASAN'
p492
aS'SIKORSKY, RAYMOND'
p493
aS'JAMESON, COL. JOHN '
p494
aS'FIRELORD/PYREUS KRIL'
p495
aS'POWERSURGE/ILLARION '
p496
aS'ETERNITY/ADAM QADMON'
p497
aS'IRON MAN DOPPELGANGE'
p498
aS'DEMOLITION MAN/DENNI'
p499
aS'RED GUARDIAN V'
p500
aS'PSYNAPSE'
p501
aS'DEVIL DINOSAUR | MUT'
p502
aS'MILAN'
p503
aS'COLOSSUS II/PETER RA'
p504
aS'QUICKSAND'
p505
aS'PIERCE, ALEXANDER GO'
p506
aS'LODESTONE/ANDREA'
p507
aS'ANT-MAN II/SCOTT HAR'
p508
aS'WATER WIZARD/PETE'
p509
aS'WASP/JANET VAN DYNE '
p510
aS'STINGRAY/DR. WALTER '
p511
aS'CARGIL/JOANNA CARGIL'
p512
aS'VANGUARD/NICOLAI KRY'
p513
aS'BALDWIN, JUSTIN'
p514
aS'NUADA'
p515
aS'FIRESTAR DOPPELGANGE'
p516
aS'SCORCHER/'
p517
aS'WONDER MAN/SIMON WIL'
p518
aS'REAPER II'
p519
aS'SPIDER-MAN/PETER PAR'
p520
aS'ABOMINATION | MUTANT'
p521
aS'MOLECULE MAN/OWEN RE'
p522
aS'SHADOWCAT/KATHERINE '
p523
aS'MOONSTONE II/KARLA S'
p524
aS'DEATHLOK III/MICHAEL'
p525
aS'ULTRON'
p526
aS'DOORMAN'
p527
aS'MYSTIQUE/RAVEN DARKH'
p528
aS'DEFENSOR'
p529
aS'MANIKIN/DR. WHITMAN '
p530
aS'GYRICH, HENRY PETER'
p531
aS'EIGHTBALL'
p532
aS'BETA RAY BILL'
p533
aS'HERCULES DOPPELGANGE'
p534
aS'LEEDS, NED'
p535
aS'ELEKTRA | MUTANT X-V'
p536
aS'MALICE V/NAKIA'
p537
aS'KLAW/ULYSSES KLAW'
p538
aS'FAYRELYTE STRONGHEAR'
p539
aS'SHOOTING STAR'
p540
aS'HUMAN TORCH DOPPELGA'
p541
aS'GAMBIT | MUTANT X-VE'
p542
aS'MAGMA/AMARA AQUILLA/'
p543
aS'GOBLYN'
p544
aS'MAGIK/ILLYANA RASPUT'
p545
aS'BLACK CAT/FELICIA HA'
p546
aS'MORDRED THE EVIL'
p547
aS'BEAST DOPPELGANGER'
p548
aS'NAMORITA | MUTANT X-'
p549
aS'RAVEN | MUTANT X-VER'
p550
aS'TRITON'
p551
aS'INSHALLAH, KHALID'
p552
aS'WARLOCK III'
p553
aS'NOVA II/FRANKIE RAYE'
p554
aS'ARABIAN KNIGHT/ABDUL'
p555
aS'IGOR'
p556
aS'MILLER, FRANK'
p557
aS'URICH, BEN'
p558
aS'STANKOWICZ, FABIAN'
p559
aS'ZEUS'
p560
aS'MIKHLO'
p561
aS'SILVERCLAW/LA GARRA '
p562
aS'FLYING TIGER'
p563
aS'GARGOYLE II/ISAAC CH'
p564
aS'FORGE'
p565
aS'QUICKSILVER DOPPELGA'
p566
aS'BANNER, BETTY ROSS T'
p567
aS"IRON FIST H'YLTHRI I"
p568
aS'SUPREME INTELLIGENCE'
p569
aS'SUGAR MAN'
p570
aS'BLACK PANTHER | MUTA'
p571
aS'HELLCAT/PATSY WALKER'
p572
aS'MAD DOG/COLONEL BUZZ'
p573
aS'DOC SAMSON/DR. LEONA'
p574
aS'COLLECTIVE MAN'
p575
aS"MAN-APE/M'BAKU"
p576
aS'ZCANN'
p577
aS'DAN-FARR'
p578
aS'WOLFSBANE DOPPELGANG'
p579
aS'WHIZZER/ROBERT L. FR'
p580
aS"O'BRIEN, MICHAEL"
p581
aS'VASHTI'
p582
aS'BOOMER/TABITHA SMITH'
p583
aS'SUNSTROKE/'
p584
aS'BROTHER VOODOO/DANIE'
p585
aS'WHIRLWIND/DAVID CANN'
p586
aS'WOLFSBANE/RAHNE SINC'
p587
aS'AMERICAN EAGLE III/J'
p588
aS'VECTOR'
p589
aS'ANGEL DOPPELGANGER'
p590
aS'ICEMASTER/'
p591
aS'VANISHER'
p592
aS'INFINITY II'
p593
aS'LOCKJAW [INHUMAN]'
p594
aS'AVIOS'
p595
aS'CAGE, LUKE/CARL LUCA'
p596
aS'VOLSTAGG'
p597
aS'SOFEN, KARL AUGUST'
p598
aS'HAVOK/ALEX SUMMERS '
p599
aS'QUASAR III/WENDELL V'
p600
aS'JACKSON, CELIA'
p601
aS'MOON KNIGHT DOPPELGA'
p602
aS'KARNAK DOPPELGANGER'
p603
aS'BALDWIN, MADELYNE MA'
p604
aS'LE FEY, MORGAN'
p605
aS"BLACK PANTHER/T'CHAL"
p606
aS'ONSLAUGHT II'
p607
aS'TALISMAN II/ELIZABET'
p608
aS'AURORA DOPPELGANGER'
p609
aS'SLEEPWALKER'
p610
aS'SUPERCHARGER/'
p611
aS'CYCLOPS DOPPELGANGER'
p612
aS'BALDER [ASGARDIAN]'
p613
aS'QUASAR DOPPELGANGER'
p614
aS'MAGNETO | MUTANT X-V'
p615
aS'DAREDEVIL DOPPELGANG'
p616
aS'ROSS, EVERETT KENNET'
p617
aS'BEACH, GINGER'
p618
aS'GARGOYLE | MUTANT X-'
p619
aS'POLARIS | MUTANT X-V'
p620
aS'RICHARDS, REED | MUT'
p621
aS'SILHOUETTE'
p622
aS'PAGE, KAREN'
p623
aS'APOCALYPSE/EN SABAH '
p624
aS'FIRESTAR/ANGELICA JO'
p625
aS'JOSEPH'
p626
aS'TITANIA/'
p627
aS'MR. IMMORTAL'
p628
aS'IRON FIST | MUTANT X'
p629
atRp630
.